target datalayout = "e-m:e-p270:32:32-p271:32:32-p272:64:64-i64:64-i128:128-f80:128-n8:16:32:64-S128"
target triple = "x86_64-pc-linux-gnu"

%struct.evp_cipher_ctx_st = type { ptr, ptr, ptr, i32, i32, i32, [16 x i8], [16 x i8], [32 x i8], i32, i32, i32, i32, [32 x i8] }
%struct.evp_cipher_st = type { i32, i32, i32, i32, i32, i32, ptr, ptr, ptr, ptr, ptr }

@.str = private unnamed_addr constant [126 x i8] c"generated/home/dtcxzyw/WorkSpace/Projects/compilers/llvm-opt-benchmark/bench/libquic/libquic/boringssl/crypto/cipher/cipher.c\00", align 1

; Function Attrs: nounwind uwtable
define hidden i32 @EVP_EncryptFinal_ex(ptr noundef %0, ptr noundef %1, ptr noundef %2) #0 {
  %4 = alloca i32, align 4
  %5 = alloca ptr, align 8
  %6 = alloca ptr, align 8
  %7 = alloca ptr, align 8
  %8 = alloca i32, align 4
  %9 = alloca i32, align 4
  %10 = alloca i32, align 4
  %11 = alloca i32, align 4
  %12 = alloca i32, align 4
  %13 = alloca i32, align 4
  store ptr %0, ptr %5, align 8, !tbaa !10
  store ptr %1, ptr %6, align 8, !tbaa !25
  store ptr %2, ptr %7, align 8, !tbaa !39
  call void @llvm.lifetime.start.p0(i64 4, ptr %8) #7
  call void @llvm.lifetime.start.p0(i64 4, ptr %9) #7
  call void @llvm.lifetime.start.p0(i64 4, ptr %10) #7
  call void @llvm.lifetime.start.p0(i64 4, ptr %11) #7
  call void @llvm.lifetime.start.p0(i64 4, ptr %12) #7
  %14 = load ptr, ptr %5, align 8, !tbaa !10
  %15 = getelementptr inbounds nuw %struct.evp_cipher_ctx_st, ptr %14, i32 0, i32 0
  %16 = load ptr, ptr %15, align 8, !tbaa !13
  %17 = getelementptr inbounds nuw %struct.evp_cipher_st, ptr %16, i32 0, i32 5
  %18 = load i32, ptr %17, align 4, !tbaa !20
  %19 = and i32 %18, 1024
  %20 = icmp ne i32 %19, 0
  br i1 %20, label %21, label %37

21:                                               ; preds = %3
  %22 = load ptr, ptr %5, align 8, !tbaa !10
  %23 = getelementptr inbounds nuw %struct.evp_cipher_ctx_st, ptr %22, i32 0, i32 0
  %24 = load ptr, ptr %23, align 8, !tbaa !13
  %25 = getelementptr inbounds nuw %struct.evp_cipher_st, ptr %24, i32 0, i32 8
  %26 = load ptr, ptr %25, align 8, !tbaa !41
  %27 = load ptr, ptr %5, align 8, !tbaa !10
  %28 = load ptr, ptr %6, align 8, !tbaa !25
  %29 = call i32 %26(ptr noundef %27, ptr noundef %28, ptr noundef null, i64 noundef 0)
  store i32 %29, ptr %9, align 4, !tbaa !6
  %30 = load i32, ptr %9, align 4, !tbaa !6
  %31 = icmp slt i32 %30, 0
  br i1 %31, label %32, label %33

32:                                               ; preds = %21
  store i32 0, ptr %4, align 4
  store i32 1, ptr %13, align 4
  br label %103

33:                                               ; preds = %21
  %34 = load i32, ptr %9, align 4, !tbaa !6
  %35 = load ptr, ptr %7, align 8, !tbaa !39
  store i32 %34, ptr %35, align 4, !tbaa !6
  br label %36

36:                                               ; preds = %33
  store i32 1, ptr %4, align 4
  store i32 1, ptr %13, align 4
  br label %103

37:                                               ; preds = %3
  %38 = load ptr, ptr %5, align 8, !tbaa !10
  %39 = getelementptr inbounds nuw %struct.evp_cipher_ctx_st, ptr %38, i32 0, i32 0
  %40 = load ptr, ptr %39, align 8, !tbaa !13
  %41 = getelementptr inbounds nuw %struct.evp_cipher_st, ptr %40, i32 0, i32 1
  %42 = load i32, ptr %41, align 4, !tbaa !35
  store i32 %42, ptr %11, align 4, !tbaa !6
  %43 = load i32, ptr %11, align 4, !tbaa !6
  %44 = icmp eq i32 %43, 1
  br i1 %44, label %45, label %47

45:                                               ; preds = %37
  %46 = load ptr, ptr %7, align 8, !tbaa !39
  store i32 0, ptr %46, align 4, !tbaa !6
  store i32 1, ptr %4, align 4
  store i32 1, ptr %13, align 4
  br label %103

47:                                               ; preds = %37
  %48 = load ptr, ptr %5, align 8, !tbaa !10
  %49 = getelementptr inbounds nuw %struct.evp_cipher_ctx_st, ptr %48, i32 0, i32 9
  %50 = load i32, ptr %49, align 4, !tbaa !33
  store i32 %50, ptr %12, align 4, !tbaa !6
  %51 = load ptr, ptr %5, align 8, !tbaa !10
  %52 = getelementptr inbounds nuw %struct.evp_cipher_ctx_st, ptr %51, i32 0, i32 5
  %53 = load i32, ptr %52, align 8, !tbaa !30
  %54 = and i32 %53, 2048
  %55 = icmp ne i32 %54, 0
  br i1 %55, label %56, label %62

56:                                               ; preds = %47
  %57 = load i32, ptr %12, align 4, !tbaa !6
  %58 = icmp ne i32 %57, 0
  br i1 %58, label %59, label %60

59:                                               ; preds = %56
  call void @ERR_put_error(i32 noundef 30, i32 noundef 0, i32 noundef 106, ptr noundef @.str, i32 noundef 347)
  store i32 0, ptr %4, align 4
  store i32 1, ptr %13, align 4
  br label %103

60:                                               ; preds = %56
  %61 = load ptr, ptr %7, align 8, !tbaa !39
  store i32 0, ptr %61, align 4, !tbaa !6
  store i32 1, ptr %4, align 4
  store i32 1, ptr %13, align 4
  br label %103

62:                                               ; preds = %47
  %63 = load i32, ptr %11, align 4, !tbaa !6
  %64 = load i32, ptr %12, align 4, !tbaa !6
  %65 = sub i32 %63, %64
  store i32 %65, ptr %8, align 4, !tbaa !6
  %66 = load i32, ptr %12, align 4, !tbaa !6
  store i32 %66, ptr %10, align 4, !tbaa !6
  br label %67

67:                                               ; preds = %79, %62
  %68 = load i32, ptr %10, align 4, !tbaa !6
  %69 = load i32, ptr %11, align 4, !tbaa !6
  %70 = icmp ult i32 %68, %69
  br i1 %70, label %71, label %82

71:                                               ; preds = %67
  %72 = load i32, ptr %8, align 4, !tbaa !6
  %73 = trunc i32 %72 to i8
  %74 = load ptr, ptr %5, align 8, !tbaa !10
  %75 = getelementptr inbounds nuw %struct.evp_cipher_ctx_st, ptr %74, i32 0, i32 8
  %76 = load i32, ptr %10, align 4, !tbaa !6
  %77 = zext i32 %76 to i64
  %78 = getelementptr inbounds nuw [32 x i8], ptr %75, i64 0, i64 %77
  store i8 %73, ptr %78, align 1, !tbaa !42
  br label %79

79:                                               ; preds = %71
  %80 = load i32, ptr %10, align 4, !tbaa !6
  %81 = add i32 %80, 1
  store i32 %81, ptr %10, align 4, !tbaa !6
  br label %67, !llvm.loop !43

82:                                               ; preds = %67
  %83 = load ptr, ptr %5, align 8, !tbaa !10
  %84 = getelementptr inbounds nuw %struct.evp_cipher_ctx_st, ptr %83, i32 0, i32 0
  %85 = load ptr, ptr %84, align 8, !tbaa !13
  %86 = getelementptr inbounds nuw %struct.evp_cipher_st, ptr %85, i32 0, i32 8
  %87 = load ptr, ptr %86, align 8, !tbaa !41
  %88 = load ptr, ptr %5, align 8, !tbaa !10
  %89 = load ptr, ptr %6, align 8, !tbaa !25
  %90 = load ptr, ptr %5, align 8, !tbaa !10
  %91 = getelementptr inbounds nuw %struct.evp_cipher_ctx_st, ptr %90, i32 0, i32 8
  %92 = getelementptr inbounds [32 x i8], ptr %91, i64 0, i64 0
  %93 = load i32, ptr %11, align 4, !tbaa !6
  %94 = zext i32 %93 to i64
  %95 = call i32 %87(ptr noundef %88, ptr noundef %89, ptr noundef %92, i64 noundef %94)
  store i32 %95, ptr %9, align 4, !tbaa !6
  %96 = load i32, ptr %9, align 4, !tbaa !6
  %97 = icmp ne i32 %96, 0
  br i1 %97, label %98, label %101

98:                                               ; preds = %82
  %99 = load i32, ptr %11, align 4, !tbaa !6
  %100 = load ptr, ptr %7, align 8, !tbaa !39
  store i32 %99, ptr %100, align 4, !tbaa !6
  br label %101

101:                                              ; preds = %98, %82
  %102 = load i32, ptr %9, align 4, !tbaa !6
  store i32 %102, ptr %4, align 4
  store i32 1, ptr %13, align 4
  br label %103

103:                                              ; preds = %101, %60, %59, %45, %36, %32
  call void @llvm.lifetime.end.p0(i64 4, ptr %12) #7
  call void @llvm.lifetime.end.p0(i64 4, ptr %11) #7
  call void @llvm.lifetime.end.p0(i64 4, ptr %10) #7
  call void @llvm.lifetime.end.p0(i64 4, ptr %9) #7
  call void @llvm.lifetime.end.p0(i64 4, ptr %8) #7
  %104 = load i32, ptr %4, align 4
  ret i32 %104
}

; Function Attrs: nounwind uwtable
define hidden i32 @EVP_CipherFinal_ex(ptr noundef %0, ptr noundef %1, ptr noundef %2) #0 {
  %4 = alloca i32, align 4
  %5 = alloca ptr, align 8
  %6 = alloca ptr, align 8
  %7 = alloca ptr, align 8
  store ptr %0, ptr %5, align 8, !tbaa !10
  store ptr %1, ptr %6, align 8, !tbaa !25
  store ptr %2, ptr %7, align 8, !tbaa !39
  %8 = load ptr, ptr %5, align 8, !tbaa !10
  %9 = getelementptr inbounds nuw %struct.evp_cipher_ctx_st, ptr %8, i32 0, i32 4
  %10 = load i32, ptr %9, align 4, !tbaa !27
  %11 = icmp ne i32 %10, 0
  br i1 %11, label %12, label %17

12:                                               ; preds = %3
  %13 = load ptr, ptr %5, align 8, !tbaa !10
  %14 = load ptr, ptr %6, align 8, !tbaa !25
  %15 = load ptr, ptr %7, align 8, !tbaa !39
  %16 = call i32 @EVP_EncryptFinal_ex(ptr noundef %13, ptr noundef %14, ptr noundef %15)
  store i32 %16, ptr %4, align 4
  br label %22

17:                                               ; preds = %3
  %18 = load ptr, ptr %5, align 8, !tbaa !10
  %19 = load ptr, ptr %6, align 8, !tbaa !25
  %20 = load ptr, ptr %7, align 8, !tbaa !39
  %21 = call i32 @EVP_DecryptFinal_ex(ptr noundef %18, ptr noundef %19, ptr noundef %20)
  store i32 %21, ptr %4, align 4
  br label %22

22:                                               ; preds = %17, %12
  %23 = load i32, ptr %4, align 4
  ret i32 %23
}