; Function Attrs: nounwind uwtable
define hidden i32 @EVP_CipherFinal_ex(ptr noundef %0, ptr noundef %1, ptr noundef writeonly captures(none) %2) local_unnamed_addr #0 {
  %4 = getelementptr inbounds nuw i8, ptr %0, i64 28
  %5 = load i32, ptr %4, align 4, !tbaa !19
  %.not = icmp eq i32 %5, 0
  br i1 %.not, label %47, label %6

6:                                                ; preds = %3
  %7 = load ptr, ptr %0, align 8, !tbaa !6
  %8 = getelementptr inbounds nuw i8, ptr %7, i64 20
  %9 = load i32, ptr %8, align 4, !tbaa !17
  %10 = and i32 %9, 1024
  %.not.i = icmp eq i32 %10, 0
  br i1 %.not.i, label %17, label %11

11:                                               ; preds = %6
  %12 = getelementptr inbounds nuw i8, ptr %7, i64 40
  %13 = load ptr, ptr %12, align 8, !tbaa !30
  %14 = tail call i32 %13(ptr noundef nonnull %0, ptr noundef %1, ptr noundef null, i64 noundef 0) #14
  %15 = icmp slt i32 %14, 0
  br i1 %15, label %EVP_EncryptFinal_ex.exit, label %16

16:                                               ; preds = %11
  store i32 %14, ptr %2, align 4, !tbaa !31
  br label %EVP_EncryptFinal_ex.exit

17:                                               ; preds = %6
  %18 = getelementptr inbounds nuw i8, ptr %7, i64 4
  %19 = load i32, ptr %18, align 4, !tbaa !28
  %20 = icmp eq i32 %19, 1
  br i1 %20, label %21, label %22

21:                                               ; preds = %17
  store i32 0, ptr %2, align 4, !tbaa !31
  br label %EVP_EncryptFinal_ex.exit

22:                                               ; preds = %17
  %23 = getelementptr inbounds nuw i8, ptr %0, i64 100
  %24 = load i32, ptr %23, align 4, !tbaa !26
  %25 = getelementptr inbounds nuw i8, ptr %0, i64 32
  %26 = load i32, ptr %25, align 8, !tbaa !22
  %27 = and i32 %26, 2048
  %.not35.i = icmp eq i32 %27, 0
  br i1 %.not35.i, label %31, label %28

28:                                               ; preds = %22
  %.not37.i = icmp eq i32 %24, 0
  br i1 %.not37.i, label %30, label %29

29:                                               ; preds = %28
  tail call void @ERR_put_error(i32 noundef 30, i32 noundef 0, i32 noundef 106, ptr noundef nonnull @.str, i32 noundef 347) #14
  br label %EVP_EncryptFinal_ex.exit

30:                                               ; preds = %28
  store i32 0, ptr %2, align 4, !tbaa !31
  br label %EVP_EncryptFinal_ex.exit

31:                                               ; preds = %22
  %32 = icmp ult i32 %24, %19
  br i1 %32, label %.lr.ph.i, label %._crit_edge.i

.lr.ph.i:                                         ; preds = %31
  %33 = sub nuw i32 %19, %24
  %34 = trunc i32 %33 to i8
  %35 = zext i32 %24 to i64
  %36 = getelementptr i8, ptr %0, i64 %35
  %scevgep.i = getelementptr i8, ptr %36, i64 68
  %37 = xor i32 %24, -1
  %38 = add i32 %19, %37
  %39 = zext i32 %38 to i64
  %40 = add nuw nsw i64 %39, 1
  tail call void @llvm.memset.p0.i64(ptr noundef nonnull align 1 dereferenceable(1) %scevgep.i, i8 %34, i64 %40, i1 false), !tbaa !32
  br label %._crit_edge.i

._crit_edge.i:                                    ; preds = %.lr.ph.i, %31
  %41 = getelementptr inbounds nuw i8, ptr %7, i64 40
  %42 = load ptr, ptr %41, align 8, !tbaa !30
  %43 = getelementptr inbounds nuw i8, ptr %0, i64 68
  %44 = zext i32 %19 to i64
  %45 = tail call i32 %42(ptr noundef nonnull %0, ptr noundef %1, ptr noundef nonnull %43, i64 noundef %44) #14
  %.not36.i = icmp eq i32 %45, 0
  br i1 %.not36.i, label %EVP_EncryptFinal_ex.exit, label %46

46:                                               ; preds = %._crit_edge.i
  store i32 %19, ptr %2, align 4, !tbaa !31
  br label %EVP_EncryptFinal_ex.exit

47:                                               ; preds = %3
  %48 = tail call i32 @EVP_DecryptFinal_ex(ptr noundef nonnull %0, ptr noundef %1, ptr noundef %2)
  br label %EVP_EncryptFinal_ex.exit

EVP_EncryptFinal_ex.exit:                         ; preds = %46, %._crit_edge.i, %30, %29, %21, %16, %11, %47
  %.0 = phi i32 [ %48, %47 ], [ 1, %16 ], [ 1, %21 ], [ 0, %29 ], [ 1, %30 ], [ 0, %11 ], [ %45, %46 ], [ 0, %._crit_edge.i ]
  ret i32 %.0
}